; Function Attrs: mustprogress uwtable
define noundef zeroext i1 @_ZNK6casadi6MatrixINS_6SXElemEE11is_symbolicEv(ptr noundef nonnull align 8 dereferenceable(40) %0) local_unnamed_addr #3 align 2 {
  %2 = getelementptr inbounds i8, ptr %0, i64 8
  %3 = tail call noundef zeroext i1 @_ZNK6casadi8Sparsity8is_denseEv(ptr noundef nonnull align 8 dereferenceable(8) %2)
  br i1 %3, label %4, label %_ZNK6casadi6MatrixINS_6SXElemEE14is_valid_inputEv.exit

4:                                                ; preds = %1
  %5 = tail call noundef i64 @_ZNK6casadi8Sparsity3nnzEv(ptr noundef nonnull align 8 dereferenceable(8) %2)
  %6 = icmp slt i64 %5, 1
  br i1 %6, label %_ZNK6casadi6MatrixINS_6SXElemEE14is_valid_inputEv.exit, label %.lr.ph.i

.lr.ph.i:                                         ; preds = %4
  %7 = getelementptr inbounds i8, ptr %0, i64 16
  %8 = getelementptr inbounds i8, ptr %0, i64 24
  br label %9

9:                                                ; preds = %23, %.lr.ph.i
  %.08.i = phi i64 [ 0, %.lr.ph.i ], [ %24, %23 ]
  %10 = load ptr, ptr %8, align 8
  %11 = load ptr, ptr %7, align 8
  %12 = ptrtoint ptr %10 to i64
  %13 = ptrtoint ptr %11 to i64
  %14 = sub i64 %12, %13
  %15 = ashr exact i64 %14, 3
  %.not.i.i.i = icmp ugt i64 %15, %.08.i
  br i1 %.not.i.i.i, label %_ZNKSt6vectorIN6casadi6SXElemESaIS1_EE2atEm.exit.i, label %16

16:                                               ; preds = %9
  tail call void (ptr, ...) @_ZSt24__throw_out_of_range_fmtPKcz(ptr noundef nonnull @.str.470, i64 noundef %.08.i, i64 noundef %15) #27
  unreachable

_ZNKSt6vectorIN6casadi6SXElemESaIS1_EE2atEm.exit.i: ; preds = %9
  %17 = getelementptr inbounds %"class.casadi::SXElem", ptr %11, i64 %.08.i
  %18 = tail call noundef ptr @_ZNK6casadi6SXElemptEv(ptr noundef nonnull align 8 dereferenceable(8) %17)
  %19 = load ptr, ptr %18, align 8
  %20 = getelementptr inbounds i8, ptr %19, i64 32
  %21 = load ptr, ptr %20, align 8
  %22 = tail call noundef zeroext i1 %21(ptr noundef nonnull align 8 dereferenceable(16) %18)
  br i1 %22, label %23, label %_ZNK6casadi6MatrixINS_6SXElemEE14is_valid_inputEv.exit

23:                                               ; preds = %_ZNKSt6vectorIN6casadi6SXElemESaIS1_EE2atEm.exit.i
  %24 = add nuw nsw i64 %.08.i, 1
  %25 = tail call noundef i64 @_ZNK6casadi8Sparsity3nnzEv(ptr noundef nonnull align 8 dereferenceable(8) %2)
  %.not.i = icmp slt i64 %24, %25
  br i1 %.not.i, label %9, label %_ZNK6casadi6MatrixINS_6SXElemEE14is_valid_inputEv.exit, !llvm.loop !745

_ZNK6casadi6MatrixINS_6SXElemEE14is_valid_inputEv.exit: ; preds = %23, %_ZNKSt6vectorIN6casadi6SXElemESaIS1_EE2atEm.exit.i, %4, %1
  %.0 = phi i1 [ false, %1 ], [ true, %4 ], [ %22, %_ZNKSt6vectorIN6casadi6SXElemESaIS1_EE2atEm.exit.i ], [ %22, %23 ]
  ret i1 %.0
}